; Function Attrs: nounwind uwtable
define internal fastcc i32 @bf_pow_ui(ptr noundef %0, ptr noundef captures(address) %1, i64 noundef %2, i64 noundef %3, i32 noundef range(i32 0, 2017) %4) unnamed_addr #2 {
  %6 = icmp eq i64 %2, 0
  br i1 %6, label %7, label %28

7:                                                ; preds = %5
  %8 = getelementptr inbounds nuw i8, ptr %0, i64 8
  store i32 0, ptr %8, align 8, !tbaa !30
  %9 = getelementptr inbounds nuw i8, ptr %0, i64 24
  %10 = load i64, ptr %9, align 8, !tbaa !32
  %.not.i15.i = icmp eq i64 %10, 1
  br i1 %.not.i15.i, label %.bf_resize.exit18.thread21_crit_edge.i, label %11

.bf_resize.exit18.thread21_crit_edge.i:           ; preds = %7
  %.phi.trans.insert.i = getelementptr inbounds nuw i8, ptr %0, i64 32
  %.pre.i = load ptr, ptr %.phi.trans.insert.i, align 8, !tbaa !29
  br label %bf_resize.exit18.thread21.i

11:                                               ; preds = %7
  %12 = load ptr, ptr %0, align 8, !tbaa !28
  %13 = getelementptr inbounds nuw i8, ptr %0, i64 32
  %14 = load ptr, ptr %13, align 8, !tbaa !29
  %.val.i16.i = load ptr, ptr %12, align 8, !tbaa !19
  %15 = getelementptr i8, ptr %12, i64 8
  %.val13.i17.i = load ptr, ptr %15, align 8, !tbaa !7
  %16 = tail call ptr %.val13.i17.i(ptr noundef %.val.i16.i, ptr noundef %14, i64 noundef 8) #21
  %17 = icmp eq ptr %16, null
  br i1 %17, label %bf_resize.exit18.i, label %18

18:                                               ; preds = %11
  store ptr %16, ptr %13, align 8, !tbaa !29
  store i64 1, ptr %9, align 8, !tbaa !32
  br label %bf_resize.exit18.thread21.i

bf_resize.exit18.thread21.i:                      ; preds = %18, %.bf_resize.exit18.thread21_crit_edge.i
  %19 = phi ptr [ %.pre.i, %.bf_resize.exit18.thread21_crit_edge.i ], [ %16, %18 ]
  store i64 -9223372036854775808, ptr %19, align 8, !tbaa !33
  %20 = getelementptr inbounds nuw i8, ptr %0, i64 16
  store i64 1, ptr %20, align 8, !tbaa !31
  br label %bf_set_ui.exit

bf_resize.exit18.i:                               ; preds = %11
  %21 = load i64, ptr %9, align 8, !tbaa !32
  %.not.i.i.i = icmp eq i64 %21, 0
  br i1 %.not.i.i.i, label %bf_set_nan.exit.i, label %22

22:                                               ; preds = %bf_resize.exit18.i
  %23 = load ptr, ptr %0, align 8, !tbaa !28
  %24 = load ptr, ptr %13, align 8, !tbaa !29
  %.val.i.i.i = load ptr, ptr %23, align 8, !tbaa !19
  %25 = getelementptr i8, ptr %23, i64 8
  %.val13.i.i.i = load ptr, ptr %25, align 8, !tbaa !7
  %26 = tail call ptr %.val13.i.i.i(ptr noundef %.val.i.i.i, ptr noundef %24, i64 noundef 0) #21
  store ptr %26, ptr %13, align 8, !tbaa !29
  store i64 0, ptr %9, align 8, !tbaa !32
  br label %bf_set_nan.exit.i

bf_set_nan.exit.i:                                ; preds = %22, %bf_resize.exit18.i
  %27 = getelementptr inbounds nuw i8, ptr %0, i64 16
  store i64 9223372036854775807, ptr %27, align 8, !tbaa !31
  store i32 0, ptr %8, align 8, !tbaa !30
  br label %bf_set_ui.exit

28:                                               ; preds = %5
  %29 = icmp eq ptr %0, %1
  br i1 %29, label %bf_set.exit, label %30

30:                                               ; preds = %28
  %31 = getelementptr inbounds nuw i8, ptr %1, i64 24
  %32 = load i64, ptr %31, align 8, !tbaa !32
  %33 = getelementptr inbounds nuw i8, ptr %0, i64 24
  %34 = load i64, ptr %33, align 8, !tbaa !32
  %.not.i.i = icmp eq i64 %32, %34
  br i1 %.not.i.i, label %53, label %35

35:                                               ; preds = %30
  %36 = load ptr, ptr %0, align 8, !tbaa !28
  %37 = getelementptr inbounds nuw i8, ptr %0, i64 32
  %38 = load ptr, ptr %37, align 8, !tbaa !29
  %39 = shl i64 %32, 3
  %.val.i.i = load ptr, ptr %36, align 8, !tbaa !19
  %40 = getelementptr i8, ptr %36, i64 8
  %.val13.i.i = load ptr, ptr %40, align 8, !tbaa !7
  %41 = tail call ptr %.val13.i.i(ptr noundef %.val.i.i, ptr noundef %38, i64 noundef %39) #21
  %42 = icmp eq ptr %41, null
  %43 = icmp ne i64 %32, 0
  %or.cond.i.i = and i1 %43, %42
  br i1 %or.cond.i.i, label %bf_resize.exit.i, label %44

44:                                               ; preds = %35
  store ptr %41, ptr %37, align 8, !tbaa !29
  store i64 %32, ptr %33, align 8, !tbaa !32
  %.pre.i26 = load i64, ptr %31, align 8, !tbaa !32
  br label %53

bf_resize.exit.i:                                 ; preds = %35
  %45 = load i64, ptr %33, align 8, !tbaa !32
  %.not.i.i.i27 = icmp eq i64 %45, 0
  br i1 %.not.i.i.i27, label %bf_set_nan.exit.i30, label %46

46:                                               ; preds = %bf_resize.exit.i
  %47 = load ptr, ptr %0, align 8, !tbaa !28
  %48 = load ptr, ptr %37, align 8, !tbaa !29
  %.val.i.i.i28 = load ptr, ptr %47, align 8, !tbaa !19
  %49 = getelementptr i8, ptr %47, i64 8
  %.val13.i.i.i29 = load ptr, ptr %49, align 8, !tbaa !7
  %50 = tail call ptr %.val13.i.i.i29(ptr noundef %.val.i.i.i28, ptr noundef %48, i64 noundef 0) #21
  store ptr %50, ptr %37, align 8, !tbaa !29
  store i64 0, ptr %33, align 8, !tbaa !32
  br label %bf_set_nan.exit.i30

bf_set_nan.exit.i30:                              ; preds = %46, %bf_resize.exit.i
  %51 = getelementptr inbounds nuw i8, ptr %0, i64 16
  store i64 9223372036854775807, ptr %51, align 8, !tbaa !31
  %52 = getelementptr inbounds nuw i8, ptr %0, i64 8
  store i32 0, ptr %52, align 8, !tbaa !30
  br label %bf_set.exit

53:                                               ; preds = %44, %30
  %54 = phi i64 [ %.pre.i26, %44 ], [ %32, %30 ]
  %55 = getelementptr inbounds nuw i8, ptr %1, i64 8
  %56 = load i32, ptr %55, align 8, !tbaa !30
  %57 = getelementptr inbounds nuw i8, ptr %0, i64 8
  store i32 %56, ptr %57, align 8, !tbaa !30
  %58 = getelementptr inbounds nuw i8, ptr %1, i64 16
  %59 = load i64, ptr %58, align 8, !tbaa !31
  %60 = getelementptr inbounds nuw i8, ptr %0, i64 16
  store i64 %59, ptr %60, align 8, !tbaa !31
  %61 = shl i64 %54, 3
  %.not.i14.i = icmp eq i64 %61, 0
  br i1 %.not.i14.i, label %bf_set.exit, label %62

62:                                               ; preds = %53
  %63 = getelementptr inbounds nuw i8, ptr %1, i64 32
  %64 = load ptr, ptr %63, align 8, !tbaa !29
  %65 = getelementptr inbounds nuw i8, ptr %0, i64 32
  %66 = load ptr, ptr %65, align 8, !tbaa !29
  tail call void @llvm.memcpy.p0.p0.i64(ptr align 1 %66, ptr readonly align 1 %64, i64 %61, i1 false)
  br label %bf_set.exit

bf_set.exit:                                      ; preds = %28, %bf_set_nan.exit.i30, %53, %62
  %.0.i = phi i32 [ 32, %bf_set_nan.exit.i30 ], [ 0, %28 ], [ 0, %53 ], [ 0, %62 ]
  %67 = tail call range(i64 0, 65) i64 @llvm.ctlz.i64(i64 range(i64 1, 0) %2, i1 true)
  %.not33 = icmp eq i64 %67, 63
  br i1 %.not33, label %bf_set_ui.exit, label %.lr.ph.preheader

.lr.ph.preheader:                                 ; preds = %bf_set.exit
  %68 = sub nuw nsw i64 62, %67
  br label %.lr.ph

.lr.ph:                                           ; preds = %.lr.ph.preheader, %76
  %indvars.iv = phi i64 [ %68, %.lr.ph.preheader ], [ %indvars.iv.next, %76 ]
  %.02431 = phi i32 [ %.0.i, %.lr.ph.preheader ], [ %.1, %76 ]
  %69 = tail call i32 @bf_mul(ptr noundef %0, ptr noundef %0, ptr noundef %0, i64 noundef %3, i32 noundef %4)
  %70 = or i32 %69, %.02431
  %71 = shl nuw i64 1, %indvars.iv
  %72 = and i64 %71, %2
  %.not = icmp eq i64 %72, 0
  br i1 %.not, label %76, label %73

73:                                               ; preds = %.lr.ph
  %74 = tail call i32 @bf_mul(ptr noundef %0, ptr noundef %0, ptr noundef %1, i64 noundef %3, i32 noundef %4)
  %75 = or i32 %74, %70
  br label %76

76:                                               ; preds = %.lr.ph, %73
  %.1 = phi i32 [ %75, %73 ], [ %70, %.lr.ph ]
  %indvars.iv.next = add nsw i64 %indvars.iv, -1
  %77 = trunc nuw i64 %indvars.iv to i32
  %78 = icmp sgt i32 %77, 0
  br i1 %78, label %.lr.ph, label %bf_set_ui.exit, !llvm.loop !116

bf_set_ui.exit:                                   ; preds = %76, %bf_set.exit, %bf_set_nan.exit.i, %bf_resize.exit18.thread21.i
  %.023 = phi i32 [ 32, %bf_set_nan.exit.i ], [ 0, %bf_resize.exit18.thread21.i ], [ %.0.i, %bf_set.exit ], [ %.1, %76 ]
  ret i32 %.023
}